target datalayout = "e-m:e-p270:32:32-p271:32:32-p272:64:64-i64:64-i128:128-f80:128-n8:16:32:64-S128"
target triple = "x86_64-pc-linux-gnu"

@.str.28 = private unnamed_addr constant [5 x i8] c"NULL\00", align 1
@.str.29 = private unnamed_addr constant [3 x i8] c"-0\00", align 1
@.str.30 = private unnamed_addr constant [2 x i8] c"0\00", align 1
@.str.31 = private unnamed_addr constant [17 x i8] c"0123456789abcdef\00", align 1

; Function Attrs: nounwind uwtable
define internal void @hex_convert_memory(ptr noundef %0, i64 noundef %1, ptr noundef %2, i64 noundef %3) #0 {
  %5 = alloca ptr, align 8
  %6 = alloca i64, align 8
  %7 = alloca ptr, align 8
  %8 = alloca i64, align 8
  %9 = alloca i64, align 8
  %10 = alloca i8, align 1
  store ptr %0, ptr %5, align 8, !tbaa !3
  store i64 %1, ptr %6, align 8, !tbaa !10
  store ptr %2, ptr %7, align 8, !tbaa !3
  store i64 %3, ptr %8, align 8, !tbaa !10
  call void @llvm.lifetime.start.p0(i64 8, ptr %9) #6
  store i64 0, ptr %9, align 8, !tbaa !10
  br label %11

11:                                               ; preds = %50, %4
  %12 = load i64, ptr %9, align 8, !tbaa !10
  %13 = load i64, ptr %6, align 8, !tbaa !10
  %14 = icmp ult i64 %12, %13
  br i1 %14, label %15, label %53

15:                                               ; preds = %11
  call void @llvm.lifetime.start.p0(i64 1, ptr %10) #6
  %16 = load ptr, ptr %5, align 8, !tbaa !3
  %17 = getelementptr inbounds nuw i8, ptr %16, i32 1
  store ptr %17, ptr %5, align 8, !tbaa !3
  %18 = load i8, ptr %16, align 1, !tbaa !14
  store i8 %18, ptr %10, align 1, !tbaa !14
  %19 = load i8, ptr %10, align 1, !tbaa !14
  %20 = zext i8 %19 to i32
  %21 = ashr i32 %20, 4
  %22 = sext i32 %21 to i64
  %23 = getelementptr inbounds [17 x i8], ptr @.str.31, i64 0, i64 %22
  %24 = load i8, ptr %23, align 1, !tbaa !14
  %25 = load ptr, ptr %7, align 8, !tbaa !3
  %26 = getelementptr inbounds nuw i8, ptr %25, i32 1
  store ptr %26, ptr %7, align 8, !tbaa !3
  store i8 %24, ptr %25, align 1, !tbaa !14
  %27 = load i8, ptr %10, align 1, !tbaa !14
  %28 = zext i8 %27 to i32
  %29 = and i32 %28, 15
  %30 = sext i32 %29 to i64
  %31 = getelementptr inbounds [17 x i8], ptr @.str.31, i64 0, i64 %30
  %32 = load i8, ptr %31, align 1, !tbaa !14
  %33 = load ptr, ptr %7, align 8, !tbaa !3
  %34 = getelementptr inbounds nuw i8, ptr %33, i32 1
  store ptr %34, ptr %7, align 8, !tbaa !3
  store i8 %32, ptr %33, align 1, !tbaa !14
  %35 = load i64, ptr %9, align 8, !tbaa !10
  %36 = load i64, ptr %8, align 8, !tbaa !10
  %37 = urem i64 %35, %36
  %38 = load i64, ptr %8, align 8, !tbaa !10
  %39 = sub i64 %38, 1
  %40 = icmp eq i64 %37, %39
  br i1 %40, label %41, label %49

41:                                               ; preds = %15
  %42 = load i64, ptr %9, align 8, !tbaa !10
  %43 = load i64, ptr %6, align 8, !tbaa !10
  %44 = sub i64 %43, 1
  %45 = icmp ne i64 %42, %44
  br i1 %45, label %46, label %49

46:                                               ; preds = %41
  %47 = load ptr, ptr %7, align 8, !tbaa !3
  %48 = getelementptr inbounds nuw i8, ptr %47, i32 1
  store ptr %48, ptr %7, align 8, !tbaa !3
  store i8 32, ptr %47, align 1, !tbaa !14
  br label %49

49:                                               ; preds = %46, %41, %15
  call void @llvm.lifetime.end.p0(i64 1, ptr %10) #6
  br label %50

50:                                               ; preds = %49
  %51 = load i64, ptr %9, align 8, !tbaa !10
  %52 = add i64 %51, 1
  store i64 %52, ptr %9, align 8, !tbaa !10
  br label %11, !llvm.loop !29

53:                                               ; preds = %11
  %54 = load ptr, ptr %7, align 8, !tbaa !3
  store i8 0, ptr %54, align 1, !tbaa !14
  call void @llvm.lifetime.end.p0(i64 8, ptr %9) #6
  ret void
}

; Function Attrs: nounwind uwtable
define internal i32 @convert_bn_memory(ptr noundef %0, i64 noundef %1, ptr noundef %2, ptr noundef %3, ptr noundef %4) #0 {
  %6 = alloca i32, align 4
  %7 = alloca ptr, align 8
  %8 = alloca i64, align 8
  %9 = alloca ptr, align 8
  %10 = alloca ptr, align 8
  %11 = alloca ptr, align 8
  %12 = alloca i32, align 4
  %13 = alloca i32, align 4
  %14 = alloca ptr, align 8
  %15 = alloca ptr, align 8
  %16 = alloca ptr, align 8
  %17 = alloca i32, align 4
  store ptr %0, ptr %7, align 8, !tbaa !3
  store i64 %1, ptr %8, align 8, !tbaa !10
  store ptr %2, ptr %9, align 8, !tbaa !3
  store ptr %3, ptr %10, align 8, !tbaa !32
  store ptr %4, ptr %11, align 8, !tbaa !24
  call void @llvm.lifetime.start.p0(i64 4, ptr %12) #6
  %18 = load i64, ptr %8, align 8, !tbaa !10
  %19 = mul i64 %18, 2
  %20 = trunc i64 %19 to i32
  store i32 %20, ptr %12, align 4, !tbaa !8
  call void @llvm.lifetime.start.p0(i64 4, ptr %13) #6
  call void @llvm.lifetime.start.p0(i64 8, ptr %14) #6
  %21 = load ptr, ptr %9, align 8, !tbaa !3
  store ptr %21, ptr %14, align 8, !tbaa !3
  call void @llvm.lifetime.start.p0(i64 8, ptr %15) #6
  store ptr null, ptr %15, align 8, !tbaa !3
  call void @llvm.lifetime.start.p0(i64 8, ptr %16) #6
  %22 = load ptr, ptr %11, align 8, !tbaa !24
  %23 = icmp ne ptr %22, null
  br i1 %23, label %24, label %98

24:                                               ; preds = %5
  %25 = load ptr, ptr %11, align 8, !tbaa !24
  %26 = call i32 @BN_is_zero(ptr noundef %25)
  %27 = icmp ne i32 %26, 0
  br i1 %27, label %98, label %28

28:                                               ; preds = %24
  %29 = load ptr, ptr %7, align 8, !tbaa !3
  %30 = load i64, ptr %8, align 8, !tbaa !10
  %31 = load ptr, ptr %9, align 8, !tbaa !3
  call void @hex_convert_memory(ptr noundef %29, i64 noundef %30, ptr noundef %31, i64 noundef 8)
  %32 = load ptr, ptr %10, align 8, !tbaa !32
  %33 = load i32, ptr %32, align 4, !tbaa !8
  %34 = icmp ne i32 %33, 0
  br i1 %34, label %35, label %96

35:                                               ; preds = %28
  br label %36

36:                                               ; preds = %59, %35
  %37 = load ptr, ptr %14, align 8, !tbaa !3
  %38 = load i8, ptr %37, align 1, !tbaa !14
  %39 = sext i8 %38 to i32
  %40 = icmp eq i32 %39, 48
  br i1 %40, label %46, label %41

41:                                               ; preds = %36
  %42 = load ptr, ptr %14, align 8, !tbaa !3
  %43 = load i8, ptr %42, align 1, !tbaa !14
  %44 = sext i8 %43 to i32
  %45 = icmp eq i32 %44, 32
  br label %46

46:                                               ; preds = %41, %36
  %47 = phi i1 [ true, %36 ], [ %45, %41 ]
  br i1 %47, label %48, label %62

48:                                               ; preds = %46
  %49 = load ptr, ptr %14, align 8, !tbaa !3
  %50 = load i8, ptr %49, align 1, !tbaa !14
  %51 = sext i8 %50 to i32
  %52 = icmp eq i32 %51, 48
  br i1 %52, label %53, label %58

53:                                               ; preds = %48
  %54 = load ptr, ptr %14, align 8, !tbaa !3
  store ptr %54, ptr %15, align 8, !tbaa !3
  %55 = load ptr, ptr %14, align 8, !tbaa !3
  store i8 32, ptr %55, align 1, !tbaa !14
  %56 = load i32, ptr %12, align 4, !tbaa !8
  %57 = add nsw i32 %56, -1
  store i32 %57, ptr %12, align 4, !tbaa !8
  br label %58

58:                                               ; preds = %53, %48
  br label %59

59:                                               ; preds = %58
  %60 = load ptr, ptr %14, align 8, !tbaa !3
  %61 = getelementptr inbounds nuw i8, ptr %60, i32 1
  store ptr %61, ptr %14, align 8, !tbaa !3
  br label %36, !llvm.loop !34

62:                                               ; preds = %46
  %63 = load ptr, ptr %14, align 8, !tbaa !3
  %64 = load i8, ptr %63, align 1, !tbaa !14
  %65 = sext i8 %64 to i32
  %66 = icmp eq i32 %65, 0
  br i1 %66, label %67, label %85

67:                                               ; preds = %62
  %68 = load ptr, ptr %7, align 8, !tbaa !3
  %69 = load i64, ptr %8, align 8, !tbaa !10
  %70 = getelementptr inbounds nuw i8, ptr %68, i64 %69
  %71 = load i8, ptr %70, align 1, !tbaa !14
  %72 = zext i8 %71 to i32
  %73 = and i32 %72, 240
  %74 = icmp ne i32 %73, 0
  br i1 %74, label %75, label %84

75:                                               ; preds = %67
  %76 = load ptr, ptr %11, align 8, !tbaa !24
  %77 = call i32 @BN_is_negative(ptr noundef %76)
  %78 = icmp ne i32 %77, 0
  br i1 %78, label %79, label %84

79:                                               ; preds = %75
  %80 = load ptr, ptr %10, align 8, !tbaa !32
  store i32 0, ptr %80, align 4, !tbaa !8
  %81 = load ptr, ptr %15, align 8, !tbaa !3
  store i8 45, ptr %81, align 1, !tbaa !14
  %82 = load i32, ptr %12, align 4, !tbaa !8
  %83 = add nsw i32 %82, 1
  store i32 %83, ptr %12, align 4, !tbaa !8
  br label %84

84:                                               ; preds = %79, %75, %67
  br label %95

85:                                               ; preds = %62
  %86 = load ptr, ptr %10, align 8, !tbaa !32
  store i32 0, ptr %86, align 4, !tbaa !8
  %87 = load ptr, ptr %11, align 8, !tbaa !24
  %88 = call i32 @BN_is_negative(ptr noundef %87)
  %89 = icmp ne i32 %88, 0
  br i1 %89, label %90, label %94

90:                                               ; preds = %85
  %91 = load ptr, ptr %15, align 8, !tbaa !3
  store i8 45, ptr %91, align 1, !tbaa !14
  %92 = load i32, ptr %12, align 4, !tbaa !8
  %93 = add nsw i32 %92, 1
  store i32 %93, ptr %12, align 4, !tbaa !8
  br label %94

94:                                               ; preds = %90, %85
  br label %95

95:                                               ; preds = %94, %84
  br label %96

96:                                               ; preds = %95, %28
  %97 = load i32, ptr %12, align 4, !tbaa !8
  store i32 %97, ptr %6, align 4
  store i32 1, ptr %17, align 4
  br label %139

98:                                               ; preds = %24, %5
  store i32 0, ptr %13, align 4, !tbaa !8
  br label %99

99:                                               ; preds = %118, %98
  %100 = load i32, ptr %13, align 4, !tbaa !8
  %101 = load i32, ptr %12, align 4, !tbaa !8
  %102 = icmp slt i32 %100, %101
  br i1 %102, label %103, label %121

103:                                              ; preds = %99
  %104 = load ptr, ptr %14, align 8, !tbaa !3
  %105 = getelementptr inbounds nuw i8, ptr %104, i32 1
  store ptr %105, ptr %14, align 8, !tbaa !3
  store i8 32, ptr %104, align 1, !tbaa !14
  %106 = load i32, ptr %13, align 4, !tbaa !8
  %107 = srem i32 %106, 16
  %108 = icmp eq i32 %107, 15
  br i1 %108, label %109, label %117

109:                                              ; preds = %103
  %110 = load i32, ptr %13, align 4, !tbaa !8
  %111 = load i32, ptr %12, align 4, !tbaa !8
  %112 = sub nsw i32 %111, 1
  %113 = icmp ne i32 %110, %112
  br i1 %113, label %114, label %117

114:                                              ; preds = %109
  %115 = load ptr, ptr %14, align 8, !tbaa !3
  %116 = getelementptr inbounds nuw i8, ptr %115, i32 1
  store ptr %116, ptr %14, align 8, !tbaa !3
  store i8 32, ptr %115, align 1, !tbaa !14
  br label %117

117:                                              ; preds = %114, %109, %103
  br label %118

118:                                              ; preds = %117
  %119 = load i32, ptr %13, align 4, !tbaa !8
  %120 = add nsw i32 %119, 1
  store i32 %120, ptr %13, align 4, !tbaa !8
  br label %99, !llvm.loop !35

121:                                              ; preds = %99
  %122 = load ptr, ptr %14, align 8, !tbaa !3
  store i8 0, ptr %122, align 1, !tbaa !14
  %123 = load ptr, ptr %11, align 8, !tbaa !24
  %124 = icmp eq ptr %123, null
  br i1 %124, label %125, label %126

125:                                              ; preds = %121
  store ptr @.str.28, ptr %16, align 8, !tbaa !3
  br label %131

126:                                              ; preds = %121
  %127 = load ptr, ptr %11, align 8, !tbaa !24
  %128 = call i32 @BN_is_negative(ptr noundef %127)
  %129 = icmp ne i32 %128, 0
  %130 = select i1 %129, ptr @.str.29, ptr @.str.30
  store ptr %130, ptr %16, align 8, !tbaa !3
  br label %131

131:                                              ; preds = %126, %125
  %132 = load ptr, ptr %14, align 8, !tbaa !3
  %133 = load ptr, ptr %16, align 8, !tbaa !3
  %134 = call i64 @strlen(ptr noundef %133) #7
  %135 = sub i64 0, %134
  %136 = getelementptr inbounds i8, ptr %132, i64 %135
  %137 = load ptr, ptr %16, align 8, !tbaa !3
  %138 = call ptr @strcpy(ptr noundef %136, ptr noundef %137) #6
  store i32 0, ptr %6, align 4
  store i32 1, ptr %17, align 4
  br label %139

139:                                              ; preds = %131, %96
  call void @llvm.lifetime.end.p0(i64 8, ptr %16) #6
  call void @llvm.lifetime.end.p0(i64 8, ptr %15) #6
  call void @llvm.lifetime.end.p0(i64 8, ptr %14) #6
  call void @llvm.lifetime.end.p0(i64 4, ptr %13) #6
  call void @llvm.lifetime.end.p0(i64 4, ptr %12) #6
  %140 = load i32, ptr %6, align 4
  ret i32 %140
}