; Function Attrs: nounwind uwtable
define internal fastcc i32 @convert_bn_memory(ptr noundef readonly captures(none) %0, ptr noundef nonnull %1, ptr noundef nonnull captures(none) %2, ptr noundef %3) unnamed_addr #0 {
  %.not = icmp eq ptr %3, null
  br i1 %.not, label %.preheader3, label %5

.preheader3:                                      ; preds = %5, %4
  br label %43

5:                                                ; preds = %4
  %6 = tail call i32 @BN_is_zero(ptr noundef nonnull %3) #8
  %.not53 = icmp eq i32 %6, 0
  br i1 %.not53, label %.preheader60, label %.preheader3

.preheader60:                                     ; preds = %5, %24
  %.019.i = phi ptr [ %7, %24 ], [ %0, %5 ]
  %.01418.i = phi i64 [ %25, %24 ], [ 0, %5 ]
  %.01517.i = phi ptr [ %.1.i, %24 ], [ %1, %5 ]
  %7 = getelementptr inbounds nuw i8, ptr %.019.i, i64 1
  %8 = load i8, ptr %.019.i, align 1, !tbaa !8
  %9 = zext i8 %8 to i32
  %10 = lshr i32 %9, 4
  %11 = zext nneg i32 %10 to i64
  %12 = getelementptr inbounds nuw [17 x i8], ptr @.str.31, i64 0, i64 %11
  %13 = load i8, ptr %12, align 1, !tbaa !8
  %14 = getelementptr inbounds nuw i8, ptr %.01517.i, i64 1
  store i8 %13, ptr %.01517.i, align 1, !tbaa !8
  %15 = and i32 %9, 15
  %16 = zext nneg i32 %15 to i64
  %17 = getelementptr inbounds nuw [17 x i8], ptr @.str.31, i64 0, i64 %16
  %18 = load i8, ptr %17, align 1, !tbaa !8
  %19 = getelementptr inbounds nuw i8, ptr %.01517.i, i64 2
  store i8 %18, ptr %14, align 1, !tbaa !8
  %20 = and i64 %.01418.i, 7
  %21 = icmp ne i64 %20, 7
  %.not.i = icmp eq i64 %.01418.i, 31
  %or.cond.i = or i1 %.not.i, %21
  br i1 %or.cond.i, label %24, label %22

22:                                               ; preds = %.preheader60
  %23 = getelementptr inbounds nuw i8, ptr %.01517.i, i64 3
  store i8 32, ptr %19, align 1, !tbaa !8
  br label %24

24:                                               ; preds = %22, %.preheader60
  %.1.i = phi ptr [ %23, %22 ], [ %19, %.preheader60 ]
  %25 = add nuw nsw i64 %.01418.i, 1
  %exitcond.not.i = icmp eq i64 %25, 32
  br i1 %exitcond.not.i, label %hex_convert_memory.exit, label %.preheader60, !llvm.loop !22

hex_convert_memory.exit:                          ; preds = %24
  store i8 0, ptr %.1.i, align 1, !tbaa !8
  %26 = load i32, ptr %2, align 4, !tbaa !18
  %.not54 = icmp eq i32 %26, 0
  br i1 %.not54, label %60, label %.preheader

.preheader:                                       ; preds = %hex_convert_memory.exit, %30
  %.146 = phi i32 [ %.247, %30 ], [ 64, %hex_convert_memory.exit ]
  %.042 = phi ptr [ %31, %30 ], [ %1, %hex_convert_memory.exit ]
  %.041 = phi ptr [ %.1, %30 ], [ null, %hex_convert_memory.exit ]
  %27 = load i8, ptr %.042, align 1, !tbaa !8
  switch i8 %27, label %39 [
    i8 0, label %32
    i8 48, label %28
    i8 32, label %30
  ]

28:                                               ; preds = %.preheader
  store i8 32, ptr %.042, align 1, !tbaa !8
  %29 = add nsw i32 %.146, -1
  br label %30

30:                                               ; preds = %.preheader, %28
  %.247 = phi i32 [ %29, %28 ], [ %.146, %.preheader ]
  %.1 = phi ptr [ %.042, %28 ], [ %.041, %.preheader ]
  %31 = getelementptr inbounds nuw i8, ptr %.042, i64 1
  br label %.preheader, !llvm.loop !26

32:                                               ; preds = %.preheader
  %33 = getelementptr inbounds nuw i8, ptr %0, i64 32
  %34 = load i8, ptr %33, align 1, !tbaa !8
  %.not56 = icmp ult i8 %34, 16
  br i1 %.not56, label %60, label %35

35:                                               ; preds = %32
  %36 = tail call i32 @BN_is_negative(ptr noundef nonnull %3) #8
  %.not57 = icmp eq i32 %36, 0
  br i1 %.not57, label %60, label %37

37:                                               ; preds = %35
  store i32 0, ptr %2, align 4, !tbaa !18
  store i8 45, ptr %.041, align 1, !tbaa !8
  %38 = add nsw i32 %.146, 1
  br label %60

39:                                               ; preds = %.preheader
  store i32 0, ptr %2, align 4, !tbaa !18
  %40 = tail call i32 @BN_is_negative(ptr noundef nonnull %3) #8
  %.not55 = icmp eq i32 %40, 0
  br i1 %.not55, label %60, label %41

41:                                               ; preds = %39
  store i8 45, ptr %.041, align 1, !tbaa !8
  %42 = add nsw i32 %.146, 1
  br label %60

43:                                               ; preds = %.preheader3, %49
  %.14364 = phi ptr [ %.2, %49 ], [ %1, %.preheader3 ]
  %.04463 = phi i32 [ %50, %49 ], [ 0, %.preheader3 ]
  %44 = getelementptr inbounds nuw i8, ptr %.14364, i64 1
  store i8 32, ptr %.14364, align 1, !tbaa !8
  %45 = and i32 %.04463, 15
  %46 = icmp ne i32 %45, 15
  %.not59 = icmp eq i32 %.04463, 63
  %or.cond = or i1 %.not59, %46
  br i1 %or.cond, label %49, label %47

47:                                               ; preds = %43
  %48 = getelementptr inbounds nuw i8, ptr %.14364, i64 2
  store i8 32, ptr %44, align 1, !tbaa !8
  br label %49

49:                                               ; preds = %43, %47
  %.2 = phi ptr [ %48, %47 ], [ %44, %43 ]
  %50 = add nuw nsw i32 %.04463, 1
  %exitcond.not = icmp eq i32 %50, 64
  br i1 %exitcond.not, label %51, label %43, !llvm.loop !27

51:                                               ; preds = %49
  store i8 0, ptr %.2, align 1, !tbaa !8
  br i1 %.not, label %55, label %52

52:                                               ; preds = %51
  %53 = tail call i32 @BN_is_negative(ptr noundef nonnull %3) #8
  %.not58 = icmp eq i32 %53, 0
  %54 = select i1 %.not58, ptr @.str.30, ptr @.str.29
  br label %55

55:                                               ; preds = %51, %52
  %.0 = phi ptr [ %54, %52 ], [ @.str.28, %51 ]
  %56 = tail call i64 @strlen(ptr noundef nonnull dereferenceable(1) %.0) #9
  %57 = sub i64 0, %56
  %58 = getelementptr inbounds i8, ptr %.2, i64 %57
  %59 = tail call ptr @strcpy(ptr noundef nonnull dereferenceable(1) %58, ptr noundef nonnull dereferenceable(1) %.0) #8
  br label %60

60:                                               ; preds = %hex_convert_memory.exit, %39, %41, %32, %35, %37, %55
  %.048 = phi i32 [ 0, %55 ], [ %38, %37 ], [ %.146, %35 ], [ %.146, %32 ], [ %42, %41 ], [ %.146, %39 ], [ 64, %hex_convert_memory.exit ]
  ret i32 %.048
}